; Function Attrs: mustprogress uwtable
define void @_ZN6icu_778Calendar10updateTimeER10UErrorCode(ptr noundef nonnull align 8 dereferenceable(192) %0, ptr noundef nonnull align 4 dereferenceable(4) %1) local_unnamed_addr #1 align 2 {
  %3 = load ptr, ptr %0, align 8, !tbaa !15
  %4 = getelementptr inbounds nuw i8, ptr %3, i64 248
  %5 = load ptr, ptr %4, align 8
  tail call void %5(ptr noundef nonnull align 8 dereferenceable(192) %0, ptr noundef nonnull align 4 dereferenceable(4) %1)
  %6 = load i32, ptr %1, align 4, !tbaa !13
  %7 = icmp slt i32 %6, 1
  br i1 %7, label %8, label %14

8:                                                ; preds = %2
  %9 = getelementptr inbounds nuw i8, ptr %0, i64 152
  %10 = load i8, ptr %9, align 8
  %11 = and i8 %10, 20
  %or.cond.not = icmp eq i8 %11, 4
  %.v = select i1 %or.cond.not, i8 -10, i8 -12
  %12 = and i8 %10, %.v
  %13 = or disjoint i8 %12, 1
  store i8 %13, ptr %9, align 8
  br label %14

14:                                               ; preds = %2, %8
  ret void
}